; Function Attrs: nounwind sspstrong uwtable
define internal range(i64 0, 21) i64 @rb_thread_key_p(i64 noundef %0, i64 noundef %1) #0 {
  %3 = alloca i64, align 8
  %4 = alloca i64, align 8
  store i64 %1, ptr %3, align 8, !tbaa !145
  call void @llvm.lifetime.start.p0(i64 8, ptr nonnull %4) #17
  %5 = call i64 @rb_check_id(ptr noundef nonnull %3) #17
  %6 = call ptr @rb_check_typeddata(i64 noundef %0, ptr noundef nonnull @ruby_threadptr_data_type) #17
  %7 = getelementptr inbounds nuw i8, ptr %6, i64 48
  %8 = load ptr, ptr %7, align 8, !tbaa !74
  %9 = getelementptr inbounds nuw i8, ptr %8, i64 56
  %10 = load ptr, ptr %9, align 8, !tbaa !301
  %11 = icmp eq i64 %5, 0
  %12 = icmp eq ptr %10, null
  %or.cond = select i1 %11, i1 true, i1 %12
  br i1 %or.cond, label %16, label %13

13:                                               ; preds = %2
  %14 = call i32 @rb_id_table_lookup(ptr noundef nonnull %10, i64 noundef %5, ptr noundef nonnull %4) #17
  %.not = icmp eq i32 %14, 0
  %15 = select i1 %.not, i64 0, i64 20
  br label %16

16:                                               ; preds = %2, %13
  %.0 = phi i64 [ %15, %13 ], [ 0, %2 ]
  call void @llvm.lifetime.end.p0(i64 8, ptr nonnull %4) #17
  ret i64 %.0
}